; Function Attrs: nounwind uwtable
define ptr @l_Lake_expandBinderModifier(ptr noundef %0) local_unnamed_addr #0 {
  %2 = tail call ptr @l_Lean_Syntax_getOptional_x3f(ptr noundef %0) #5
  %3 = ptrtoint ptr %2 to i64
  %4 = and i64 %3, 1
  %.not.i12 = icmp eq i64 %4, 0
  br i1 %.not.i12, label %8, label %5

5:                                                ; preds = %1
  %6 = lshr i64 %3, 1
  %7 = trunc i64 %6 to i32
  br label %lean_obj_tag.exit

8:                                                ; preds = %1
  %9 = getelementptr i8, ptr %2, i64 4
  %.val.i = load i32, ptr %9, align 4
  %10 = lshr i32 %.val.i, 24
  br label %lean_obj_tag.exit

lean_obj_tag.exit:                                ; preds = %5, %8
  %.0.i = phi i32 [ %7, %5 ], [ %10, %8 ]
  %11 = icmp eq i32 %.0.i, 0
  br i1 %11, label %37, label %12

12:                                               ; preds = %lean_obj_tag.exit
  %.val = load i32, ptr %2, align 4, !tbaa !4
  %13 = icmp eq i32 %.val, 1
  br i1 %13, label %37, label %14

14:                                               ; preds = %12
  %15 = getelementptr inbounds nuw i8, ptr %2, i64 8
  %16 = load ptr, ptr %15, align 8, !tbaa !11
  %17 = ptrtoint ptr %16 to i64
  %18 = and i64 %17, 1
  %.not = icmp eq i64 %18, 0
  br i1 %.not, label %19, label %lean_inc.exit

19:                                               ; preds = %14
  %.val.i13 = load i32, ptr %16, align 4, !tbaa !4
  %20 = icmp sgt i32 %.val.i13, 0
  br i1 %20, label %21, label %23, !prof !9

21:                                               ; preds = %19
  %22 = add nuw i32 %.val.i13, 1
  store i32 %22, ptr %16, align 4, !tbaa !4
  br label %lean_inc.exit

23:                                               ; preds = %19
  %.not.i14 = icmp eq i32 %.val.i13, 0
  br i1 %.not.i14, label %lean_inc.exit, label %24

24:                                               ; preds = %23
  tail call void @lean_inc_ref_cold(ptr noundef nonnull %16) #5
  br label %lean_inc.exit

lean_inc.exit:                                    ; preds = %24, %23, %21, %14
  br i1 %.not.i12, label %25, label %lean_dec.exit

25:                                               ; preds = %lean_inc.exit
  %26 = load i32, ptr %2, align 4, !tbaa !4
  %27 = icmp sgt i32 %26, 1
  br i1 %27, label %28, label %30, !prof !9

28:                                               ; preds = %25
  %29 = add nsw i32 %26, -1
  store i32 %29, ptr %2, align 4, !tbaa !4
  br label %lean_dec.exit

30:                                               ; preds = %25
  %.not.i = icmp eq i32 %26, 0
  br i1 %.not.i, label %lean_dec.exit, label %31

31:                                               ; preds = %30
  tail call void @lean_dec_ref_cold(ptr noundef nonnull %2) #5
  br label %lean_dec.exit

lean_dec.exit:                                    ; preds = %31, %30, %28, %lean_inc.exit
  tail call void @lean_inc_heartbeat() #5
  %32 = tail call noalias ptr @mi_malloc_small(i64 noundef 16) #5
  %33 = icmp eq ptr %32, null
  br i1 %33, label %34, label %lean_alloc_ctor.exit

34:                                               ; preds = %lean_dec.exit
  tail call void @lean_internal_panic_out_of_memory() #6
  unreachable

lean_alloc_ctor.exit:                             ; preds = %lean_dec.exit
  %35 = getelementptr inbounds nuw i8, ptr %32, i64 4
  store i32 1, ptr %32, align 4, !tbaa !4
  store i32 16842768, ptr %35, align 4
  %36 = getelementptr inbounds nuw i8, ptr %32, i64 8
  store ptr %16, ptr %36, align 8, !tbaa !11
  br label %37

37:                                               ; preds = %lean_obj_tag.exit, %lean_alloc_ctor.exit, %12
  %.0 = phi ptr [ %32, %lean_alloc_ctor.exit ], [ %2, %12 ], [ inttoptr (i64 1 to ptr), %lean_obj_tag.exit ]
  ret ptr %.0
}